target datalayout = "e-m:e-p270:32:32-p271:32:32-p272:64:64-i64:64-i128:128-f80:128-n8:16:32:64-S128"
target triple = "x86_64-pc-linux-gnu"

; Function Attrs: nounwind willreturn memory(read) uwtable
define ptr @diff_basename(ptr noundef %0) #3 {
  %2 = alloca ptr, align 8
  %3 = alloca ptr, align 8
  %4 = alloca i64, align 8
  %5 = alloca i32, align 4
  store ptr %0, ptr %3, align 8, !tbaa !14
  call void @llvm.lifetime.start.p0(i64 8, ptr %4) #7
  %6 = load ptr, ptr %3, align 8, !tbaa !14
  %7 = icmp eq ptr %6, null
  br i1 %7, label %8, label %9

8:                                                ; preds = %1
  store ptr null, ptr %2, align 8
  store i32 1, ptr %5, align 4
  br label %49

9:                                                ; preds = %1
  %10 = load ptr, ptr %3, align 8, !tbaa !14
  %11 = call i64 @strlen(ptr noundef %10) #8
  store i64 %11, ptr %4, align 8, !tbaa !10
  br label %12

12:                                               ; preds = %25, %9
  %13 = load i64, ptr %4, align 8, !tbaa !10
  %14 = icmp ugt i64 %13, 0
  br i1 %14, label %15, label %23

15:                                               ; preds = %12
  %16 = load ptr, ptr %3, align 8, !tbaa !14
  %17 = load i64, ptr %4, align 8, !tbaa !10
  %18 = sub i64 %17, 1
  %19 = getelementptr inbounds nuw i8, ptr %16, i64 %18
  %20 = load i8, ptr %19, align 1, !tbaa !16
  %21 = sext i8 %20 to i32
  %22 = icmp eq i32 47, %21
  br label %23

23:                                               ; preds = %15, %12
  %24 = phi i1 [ false, %12 ], [ %22, %15 ]
  br i1 %24, label %25, label %28

25:                                               ; preds = %23
  %26 = load i64, ptr %4, align 8, !tbaa !10
  %27 = add i64 %26, -1
  store i64 %27, ptr %4, align 8, !tbaa !10
  br label %12, !llvm.loop !17

28:                                               ; preds = %23
  br label %29

29:                                               ; preds = %42, %28
  %30 = load i64, ptr %4, align 8, !tbaa !10
  %31 = icmp ugt i64 %30, 0
  br i1 %31, label %32, label %40

32:                                               ; preds = %29
  %33 = load ptr, ptr %3, align 8, !tbaa !14
  %34 = load i64, ptr %4, align 8, !tbaa !10
  %35 = sub i64 %34, 1
  %36 = getelementptr inbounds nuw i8, ptr %33, i64 %35
  %37 = load i8, ptr %36, align 1, !tbaa !16
  %38 = sext i8 %37 to i32
  %39 = icmp ne i32 47, %38
  br label %40

40:                                               ; preds = %32, %29
  %41 = phi i1 [ false, %29 ], [ %39, %32 ]
  br i1 %41, label %42, label %45

42:                                               ; preds = %40
  %43 = load i64, ptr %4, align 8, !tbaa !10
  %44 = add i64 %43, -1
  store i64 %44, ptr %4, align 8, !tbaa !10
  br label %29, !llvm.loop !18

45:                                               ; preds = %40
  %46 = load ptr, ptr %3, align 8, !tbaa !14
  %47 = load i64, ptr %4, align 8, !tbaa !10
  %48 = getelementptr inbounds nuw i8, ptr %46, i64 %47
  store ptr %48, ptr %2, align 8
  store i32 1, ptr %5, align 4
  br label %49

49:                                               ; preds = %45, %8
  call void @llvm.lifetime.end.p0(i64 8, ptr %4) #7
  %50 = load ptr, ptr %2, align 8
  ret ptr %50
}