; Function Attrs: mustprogress nofree nounwind willreturn memory(argmem: read) uwtable
define ptr @diff_basename(ptr noundef readonly captures(address_is_null, ret: address, provenance) %0) local_unnamed_addr #2 {
  %2 = icmp eq ptr %0, null
  br i1 %2, label %13, label %3

3:                                                ; preds = %1
  %4 = tail call i64 @strlen(ptr noundef nonnull dereferenceable(1) %0) #8
  %invariant.gep = getelementptr i8, ptr %0, i64 -1
  %.not18 = icmp eq i64 %4, 0
  br i1 %.not18, label %.critedge2, label %.lr.ph

.lr.ph:                                           ; preds = %3, %7
  %.019 = phi i64 [ %8, %7 ], [ %4, %3 ]
  %gep = getelementptr i8, ptr %invariant.gep, i64 %.019
  %5 = load i8, ptr %gep, align 1, !tbaa !9
  %6 = icmp eq i8 %5, 47
  br i1 %6, label %7, label %.lr.ph26

7:                                                ; preds = %.lr.ph
  %8 = add i64 %.019, -1
  %.not = icmp eq i64 %8, 0
  br i1 %.not, label %.critedge2, label %.lr.ph, !llvm.loop !10

.lr.ph26:                                         ; preds = %.lr.ph, %10
  %.125 = phi i64 [ %11, %10 ], [ %.019, %.lr.ph ]
  %gep23 = getelementptr i8, ptr %invariant.gep, i64 %.125
  %9 = load i8, ptr %gep23, align 1, !tbaa !9
  %.not17 = icmp eq i8 %9, 47
  br i1 %.not17, label %.critedge2, label %10

10:                                               ; preds = %.lr.ph26
  %11 = add i64 %.125, -1
  %.not16 = icmp eq i64 %11, 0
  br i1 %.not16, label %.critedge2, label %.lr.ph26, !llvm.loop !11

.critedge2:                                       ; preds = %7, %.lr.ph26, %10, %3
  %.1.lcssa = phi i64 [ 0, %3 ], [ 0, %10 ], [ %.125, %.lr.ph26 ], [ 0, %7 ]
  %12 = getelementptr inbounds nuw i8, ptr %0, i64 %.1.lcssa
  br label %13

13:                                               ; preds = %1, %.critedge2
  %.014 = phi ptr [ %12, %.critedge2 ], [ null, %1 ]
  ret ptr %.014
}